; Function Attrs: mustprogress uwtable
define void @_ZNK32pxrInternal_v0_24__pxrReserved__10GfMatrix4f15ExtractRotationEv(ptr dead_on_unwind noalias writable sret(%"class.pxrInternal_v0_24__pxrReserved__::GfRotation") align 8 %0, ptr noundef nonnull readonly align 4 captures(none) dereferenceable(64) %1) local_unnamed_addr #10 align 2 {
  %3 = alloca %"class.pxrInternal_v0_24__pxrReserved__::GfQuatd", align 8
  %4 = alloca %"class.pxrInternal_v0_24__pxrReserved__::GfQuatf", align 8
  %5 = tail call { <2 x float>, <2 x float> } @_ZNK32pxrInternal_v0_24__pxrReserved__10GfMatrix4f19ExtractRotationQuatEv(ptr noundef nonnull align 4 dereferenceable(64) %1)
  %6 = extractvalue { <2 x float>, <2 x float> } %5, 0
  store <2 x float> %6, ptr %4, align 8
  %7 = getelementptr inbounds nuw i8, ptr %4, i64 8
  %8 = extractvalue { <2 x float>, <2 x float> } %5, 1
  store <2 x float> %8, ptr %7, align 8
  call void @_ZN32pxrInternal_v0_24__pxrReserved__7GfQuatdC1ERKNS_7GfQuatfE(ptr noundef nonnull align 8 dereferenceable(32) %3, ptr noundef nonnull align 4 dereferenceable(16) %4)
  %9 = call noundef nonnull align 8 dereferenceable(32) ptr @_ZN32pxrInternal_v0_24__pxrReserved__10GfRotation7SetQuatERKNS_7GfQuatdE(ptr noundef nonnull align 8 dereferenceable(32) %0, ptr noundef nonnull align 8 dereferenceable(32) %3)
  ret void
}